target datalayout = "e-m:e-p270:32:32-p271:32:32-p272:64:64-i64:64-i128:128-f80:128-n8:16:32:64-S128"
target triple = "x86_64-pc-linux-gnu"

@.str.1 = private unnamed_addr constant [11 x i8] c"miscinit.c\00", align 1
@.str.39 = private unnamed_addr constant [15 x i8] c"postmaster.pid\00", align 1
@.str.42 = private unnamed_addr constant [29 x i8] c"could not open file \22%s\22: %m\00", align 1
@.str.43 = private unnamed_addr constant [34 x i8] c"could not read from file \22%s\22: %m\00", align 1
@__func__.RecheckDataDirLockFile = private unnamed_addr constant [23 x i8] c"RecheckDataDirLockFile\00", align 1
@.str.47 = private unnamed_addr constant [48 x i8] c"could not open file \22%s\22: %m; continuing anyway\00", align 1
@.str.48 = private unnamed_addr constant [54 x i8] c"lock file \22%s\22 contains wrong PID: %ld instead of %ld\00", align 1
@my_wait_event_info = external global ptr, align 8

; Function Attrs: inlinehint nounwind willreturn memory(read) uwtable
define available_externally i64 @atol(ptr noundef nonnull %0) #10 {
  %2 = alloca ptr, align 8
  store ptr %0, ptr %2, align 8
  %3 = load ptr, ptr %2, align 8
  %4 = call i64 @strtol(ptr noundef %3, ptr noundef null, i32 noundef 10) #12
  ret i64 %4
}

; Function Attrs: inlinehint nounwind uwtable
define internal void @pgstat_report_wait_end() #6 {
  %1 = load ptr, ptr @my_wait_event_info, align 8
  store volatile i32 0, ptr %1, align 4
  ret void
}

; Function Attrs: inlinehint nounwind uwtable
define internal void @pgstat_report_wait_start(i32 noundef %0) #6 {
  %2 = alloca i32, align 4
  store i32 %0, ptr %2, align 4
  %3 = load i32, ptr %2, align 4
  %4 = load ptr, ptr @my_wait_event_info, align 8
  store volatile i32 %3, ptr %4, align 4
  ret void
}

; Function Attrs: nounwind uwtable
define dso_local zeroext i1 @RecheckDataDirLockFile() #0 {
  %1 = alloca i1, align 1
  %2 = alloca i32, align 4
  %3 = alloca i32, align 4
  %4 = alloca i64, align 8
  %5 = alloca [8192 x i8], align 16
  %6 = alloca i32, align 4
  call void @llvm.lifetime.start.p0(i64 4, ptr %2) #12
  call void @llvm.lifetime.start.p0(i64 4, ptr %3) #12
  call void @llvm.lifetime.start.p0(i64 8, ptr %4) #12
  call void @llvm.lifetime.start.p0(i64 8192, ptr %5) #12
  %7 = call i32 (ptr, i32, ...) @open(ptr noundef @.str.39, i32 noundef 2, i32 noundef 0)
  store i32 %7, ptr %2, align 4
  %8 = load i32, ptr %2, align 4
  %9 = icmp slt i32 %8, 0
  br i1 %9, label %10, label %37

10:                                               ; preds = %0
  %11 = call ptr @__errno_location() #14
  %12 = load i32, ptr %11, align 4
  switch i32 %12, label %25 [
    i32 2, label %13
    i32 20, label %13
  ]

13:                                               ; preds = %10, %10
  br label %14

14:                                               ; preds = %13
  br i1 false, label %15, label %17

15:                                               ; preds = %14
  %16 = call zeroext i1 @errstart_cold(i32 noundef 15, ptr noundef null) #13
  br i1 %16, label %19, label %22

17:                                               ; preds = %14
  %18 = call zeroext i1 @errstart(i32 noundef 15, ptr noundef null)
  br i1 %18, label %19, label %22

19:                                               ; preds = %17, %15
  %20 = call i32 @errcode_for_file_access()
  %21 = call i32 (ptr, ...) @errmsg(ptr noundef @.str.42, ptr noundef @.str.39)
  call void @errfinish(ptr noundef @.str.1, i32 noundef 1717, ptr noundef @__func__.RecheckDataDirLockFile)
  br label %22

22:                                               ; preds = %19, %17, %15
  br label %23

23:                                               ; preds = %22
  br label %24

24:                                               ; preds = %23
  store i1 false, ptr %1, align 1
  store i32 1, ptr %6, align 4
  br label %85

25:                                               ; preds = %10
  br label %26

26:                                               ; preds = %25
  br i1 false, label %27, label %29

27:                                               ; preds = %26
  %28 = call zeroext i1 @errstart_cold(i32 noundef 15, ptr noundef null) #13
  br i1 %28, label %31, label %34

29:                                               ; preds = %26
  %30 = call zeroext i1 @errstart(i32 noundef 15, ptr noundef null)
  br i1 %30, label %31, label %34

31:                                               ; preds = %29, %27
  %32 = call i32 @errcode_for_file_access()
  %33 = call i32 (ptr, ...) @errmsg(ptr noundef @.str.47, ptr noundef @.str.39)
  call void @errfinish(ptr noundef @.str.1, i32 noundef 1724, ptr noundef @__func__.RecheckDataDirLockFile)
  br label %34

34:                                               ; preds = %31, %29, %27
  br label %35

35:                                               ; preds = %34
  br label %36

36:                                               ; preds = %35
  store i1 true, ptr %1, align 1
  store i32 1, ptr %6, align 4
  br label %85

37:                                               ; preds = %0
  call void @pgstat_report_wait_start(i32 noundef 167772189)
  %38 = load i32, ptr %2, align 4
  %39 = getelementptr inbounds [8192 x i8], ptr %5, i64 0, i64 0
  %40 = call i64 @read(i32 noundef %38, ptr noundef %39, i64 noundef 8191)
  %41 = trunc i64 %40 to i32
  store i32 %41, ptr %3, align 4
  call void @pgstat_report_wait_end()
  %42 = load i32, ptr %3, align 4
  %43 = icmp slt i32 %42, 0
  br i1 %43, label %44, label %58

44:                                               ; preds = %37
  br label %45

45:                                               ; preds = %44
  br i1 false, label %46, label %48

46:                                               ; preds = %45
  %47 = call zeroext i1 @errstart_cold(i32 noundef 15, ptr noundef null) #13
  br i1 %47, label %50, label %53

48:                                               ; preds = %45
  %49 = call zeroext i1 @errstart(i32 noundef 15, ptr noundef null)
  br i1 %49, label %50, label %53

50:                                               ; preds = %48, %46
  %51 = call i32 @errcode_for_file_access()
  %52 = call i32 (ptr, ...) @errmsg(ptr noundef @.str.43, ptr noundef @.str.39)
  call void @errfinish(ptr noundef @.str.1, i32 noundef 1736, ptr noundef @__func__.RecheckDataDirLockFile)
  br label %53

53:                                               ; preds = %50, %48, %46
  br label %54

54:                                               ; preds = %53
  br label %55

55:                                               ; preds = %54
  %56 = load i32, ptr %2, align 4
  %57 = call i32 @close(i32 noundef %56)
  store i1 true, ptr %1, align 1
  store i32 1, ptr %6, align 4
  br label %85

58:                                               ; preds = %37
  %59 = load i32, ptr %3, align 4
  %60 = sext i32 %59 to i64
  %61 = getelementptr inbounds [8192 x i8], ptr %5, i64 0, i64 %60
  store i8 0, ptr %61, align 1
  %62 = load i32, ptr %2, align 4
  %63 = call i32 @close(i32 noundef %62)
  %64 = getelementptr inbounds [8192 x i8], ptr %5, i64 0, i64 0
  %65 = call i64 @atol(ptr noundef %64) #15
  store i64 %65, ptr %4, align 8
  %66 = load i64, ptr %4, align 8
  %67 = call i32 @getpid() #12
  %68 = sext i32 %67 to i64
  %69 = icmp eq i64 %66, %68
  br i1 %69, label %70, label %71

70:                                               ; preds = %58
  store i1 true, ptr %1, align 1
  store i32 1, ptr %6, align 4
  br label %85

71:                                               ; preds = %58
  br label %72

72:                                               ; preds = %71
  br i1 false, label %73, label %75

73:                                               ; preds = %72
  %74 = call zeroext i1 @errstart_cold(i32 noundef 15, ptr noundef null) #13
  br i1 %74, label %77, label %82

75:                                               ; preds = %72
  %76 = call zeroext i1 @errstart(i32 noundef 15, ptr noundef null)
  br i1 %76, label %77, label %82

77:                                               ; preds = %75, %73
  %78 = load i64, ptr %4, align 8
  %79 = call i32 @getpid() #12
  %80 = sext i32 %79 to i64
  %81 = call i32 (ptr, ...) @errmsg(ptr noundef @.str.48, ptr noundef @.str.39, i64 noundef %78, i64 noundef %80)
  call void @errfinish(ptr noundef @.str.1, i32 noundef 1749, ptr noundef @__func__.RecheckDataDirLockFile)
  br label %82

82:                                               ; preds = %77, %75, %73
  br label %83

83:                                               ; preds = %82
  br label %84

84:                                               ; preds = %83
  store i1 false, ptr %1, align 1
  store i32 1, ptr %6, align 4
  br label %85

85:                                               ; preds = %84, %70, %55, %36, %24
  call void @llvm.lifetime.end.p0(i64 8192, ptr %5) #12
  call void @llvm.lifetime.end.p0(i64 8, ptr %4) #12
  call void @llvm.lifetime.end.p0(i64 4, ptr %3) #12
  call void @llvm.lifetime.end.p0(i64 4, ptr %2) #12
  %86 = load i1, ptr %1, align 1
  ret i1 %86
}