; Function Attrs: nounwind uwtable
define dso_local noundef zeroext i1 @RecheckDataDirLockFile() local_unnamed_addr #0 {
  %1 = alloca [8192 x i8], align 16
  call void @llvm.lifetime.start.p0(i64 8192, ptr nonnull %1) #22
  %2 = tail call i32 (ptr, i32, ...) @open(ptr noundef nonnull @.str.39, i32 noundef 2, i32 noundef 0) #22
  %3 = icmp slt i32 %2, 0
  br i1 %3, label %4, label %17

4:                                                ; preds = %0
  %5 = tail call ptr @__errno_location() #24
  %6 = load i32, ptr %5, align 4
  switch i32 %6, label %12 [
    i32 2, label %7
    i32 20, label %7
  ]

7:                                                ; preds = %4, %4
  %8 = tail call zeroext i1 @errstart(i32 noundef 15, ptr noundef null) #22
  br i1 %8, label %9, label %43

9:                                                ; preds = %7
  %10 = tail call i32 @errcode_for_file_access() #22
  %11 = tail call i32 (ptr, ...) @errmsg(ptr noundef nonnull @.str.42, ptr noundef nonnull @.str.39) #22
  tail call void @errfinish(ptr noundef nonnull @.str.1, i32 noundef 1717, ptr noundef nonnull @__func__.RecheckDataDirLockFile) #22
  br label %43

12:                                               ; preds = %4
  %13 = tail call zeroext i1 @errstart(i32 noundef 15, ptr noundef null) #22
  br i1 %13, label %14, label %43

14:                                               ; preds = %12
  %15 = tail call i32 @errcode_for_file_access() #22
  %16 = tail call i32 (ptr, ...) @errmsg(ptr noundef nonnull @.str.47, ptr noundef nonnull @.str.39) #22
  tail call void @errfinish(ptr noundef nonnull @.str.1, i32 noundef 1724, ptr noundef nonnull @__func__.RecheckDataDirLockFile) #22
  br label %43

17:                                               ; preds = %0
  %18 = load ptr, ptr @my_wait_event_info, align 8
  store volatile i32 167772189, ptr %18, align 4
  %19 = call i64 @read(i32 noundef %2, ptr noundef nonnull %1, i64 noundef 8191) #22
  %20 = load ptr, ptr @my_wait_event_info, align 8
  store volatile i32 0, ptr %20, align 4
  %21 = and i64 %19, 2147483648
  %.not = icmp eq i64 %21, 0
  br i1 %.not, label %29, label %22

22:                                               ; preds = %17
  %23 = tail call zeroext i1 @errstart(i32 noundef 15, ptr noundef null) #22
  br i1 %23, label %24, label %27

24:                                               ; preds = %22
  %25 = tail call i32 @errcode_for_file_access() #22
  %26 = tail call i32 (ptr, ...) @errmsg(ptr noundef nonnull @.str.43, ptr noundef nonnull @.str.39) #22
  tail call void @errfinish(ptr noundef nonnull @.str.1, i32 noundef 1736, ptr noundef nonnull @__func__.RecheckDataDirLockFile) #22
  br label %27

27:                                               ; preds = %24, %22
  %28 = tail call i32 @close(i32 noundef %2) #22
  br label %43

29:                                               ; preds = %17
  %30 = and i64 %19, 2147483647
  %31 = getelementptr inbounds nuw [8192 x i8], ptr %1, i64 0, i64 %30
  store i8 0, ptr %31, align 1
  %32 = tail call i32 @close(i32 noundef %2) #22
  %33 = call i64 @strtol(ptr noundef nonnull captures(none) %1, ptr noundef null, i32 noundef 10) #22
  %34 = tail call i32 @getpid() #22
  %35 = sext i32 %34 to i64
  %36 = icmp eq i64 %33, %35
  br i1 %36, label %43, label %37

37:                                               ; preds = %29
  %38 = tail call zeroext i1 @errstart(i32 noundef 15, ptr noundef null) #22
  br i1 %38, label %39, label %43

39:                                               ; preds = %37
  %40 = tail call i32 @getpid() #22
  %41 = sext i32 %40 to i64
  %42 = tail call i32 (ptr, ...) @errmsg(ptr noundef nonnull @.str.48, ptr noundef nonnull @.str.39, i64 noundef %33, i64 noundef %41) #22
  tail call void @errfinish(ptr noundef nonnull @.str.1, i32 noundef 1749, ptr noundef nonnull @__func__.RecheckDataDirLockFile) #22
  br label %43

43:                                               ; preds = %37, %39, %29, %12, %14, %7, %9, %27
  %.0 = phi i1 [ true, %27 ], [ false, %9 ], [ false, %7 ], [ true, %14 ], [ true, %12 ], [ true, %29 ], [ false, %39 ], [ false, %37 ]
  call void @llvm.lifetime.end.p0(i64 8192, ptr nonnull %1) #22
  ret i1 %.0
}